ARM GAS   			page 1


   1              	 .cpu cortex-m4
   2              	 .eabi_attribute 27,1
   3              	 .eabi_attribute 28,1
   4              	 .eabi_attribute 20,1
   5              	 .eabi_attribute 21,1
   6              	 .eabi_attribute 23,3
   7              	 .eabi_attribute 24,1
   8              	 .eabi_attribute 25,1
   9              	 .eabi_attribute 26,1
  10              	 .eabi_attribute 30,1
  11              	 .eabi_attribute 34,1
  12              	 .eabi_attribute 18,4
  13              	 .file "hello.c"
  14              	 .text
  15              	.Ltext0:
  16              	 .cfi_sections .debug_frame
  17              	 .section .text.__io_puts,"ax",%progbits
  18              	 .align 1
  19              	 .global __io_puts
  20              	 .syntax unified
  21              	 .thumb
  22              	 .thumb_func
  23              	 .fpu fpv4-sp-d16
  25              	__io_puts:
  26              	.LFB19:
  27              	 .file 1 "hello.c"
   1:hello.c       **** /*
   2:hello.c       **** ** File   : hello.c
   3:hello.c       **** **
   4:hello.c       **** ** Copyright (C) 2013-2018 Gosuncn. All rights reserved.
   5:hello.c       **** **
   6:hello.c       **** ** Licensed under the Apache License, Version 2.0 (the "License");
   7:hello.c       **** ** you may not use this file except in compliance with the License.
   8:hello.c       **** ** You may obtain a copy of the License at
   9:hello.c       **** **
  10:hello.c       **** **      http://www.apache.org/licenses/LICENSE-2.0
  11:hello.c       **** **
  12:hello.c       **** ** Unless required by applicable law or agreed to in writing, software
  13:hello.c       **** ** distributed under the License is distributed on an "AS IS" BASIS,
  14:hello.c       **** ** WITHOUT WARRANTIES OR CONDITIONS OF ANY KIND, either express or implied.
  15:hello.c       **** ** See the License for the specific language governing permissions and
  16:hello.c       **** ** limitations under the License.
  17:hello.c       **** **
  18:hello.c       **** ** Author : lixingyuan@gosuncn.cn
  19:hello.c       **** **
  20:hello.c       **** **  $Date: 2018/02/08 08:45:36GMT+08:00 $
  21:hello.c       **** **
  22:hello.c       **** */
  23:hello.c       **** 
  24:hello.c       **** #include "gsdk_sdk.h"
  25:hello.c       **** 
  26:hello.c       **** static gsdk_handle_t g_huart;       //gsdk_handle_t ÂÆ¢Êà∑‰ΩøÁî®Âè•ÊüÑ
  27:hello.c       **** 
  28:hello.c       **** int __io_puts(char *data, int len)
  29:hello.c       **** {
  28              	 .loc 1 29 0
  29              	 .cfi_startproc
ARM GAS   			page 2


  30              	 
  31              	 
  32              	.LVL0:
  33 0000 10B5     	 push {r4,lr}
  34              	 .cfi_def_cfa_offset 8
  35              	 .cfi_offset 4,-8
  36              	 .cfi_offset 14,-4
  37              	.LVL1:
  30:hello.c       ****     int ret = 0;
  31:hello.c       ****     if (g_huart) {
  38              	 .loc 1 31 0
  39 0002 064B     	 ldr r3,.L5
  40 0004 1C68     	 ldr r4,[r3]
  41 0006 3CB1     	 cbz r4,.L3
  42 0008 0A46     	 mov r2,r1
  43 000a 0146     	 mov r1,r0
  44              	.LVL2:
  32:hello.c       **** 		//ÈÄöËøáÂèëÈÄÅÊï∞ÊçÆ
  33:hello.c       ****         ret = gsdk_uart_write(g_huart, (uint8_t *)data, len, 1000);
  45              	 .loc 1 33 0
  46 000c 4FF47A73 	 mov r3,#1000
  47 0010 2046     	 mov r0,r4
  48              	.LVL3:
  49 0012 FFF7FEFF 	 bl gsdk_uart_write
  50              	.LVL4:
  51              	.L1:
  34:hello.c       ****     }
  35:hello.c       ****     return ret;
  36:hello.c       **** }
  52              	 .loc 1 36 0
  53 0016 10BD     	 pop {r4,pc}
  54              	.LVL5:
  55              	.L3:
  30:hello.c       ****     if (g_huart) {
  56              	 .loc 1 30 0
  57 0018 0020     	 movs r0,#0
  58              	.LVL6:
  35:hello.c       **** }
  59              	 .loc 1 35 0
  60 001a FCE7     	 b .L1
  61              	.L6:
  62              	 .align 2
  63              	.L5:
  64 001c 00000000 	 .word .LANCHOR0
  65              	 .cfi_endproc
  66              	.LFE19:
  68              	 .section .text.main,"ax",%progbits
  69              	 .align 1
  70              	 .global main
  71              	 .syntax unified
  72              	 .thumb
  73              	 .thumb_func
  74              	 .fpu fpv4-sp-d16
  76              	main:
  77              	.LFB20:
  37:hello.c       **** 
  38:hello.c       **** int main(void)
ARM GAS   			page 3


  39:hello.c       **** {
  78              	 .loc 1 39 0
  79              	 .cfi_startproc
  80              	 
  81              	 
  82 0000 10B5     	 push {r4,lr}
  83              	 .cfi_def_cfa_offset 8
  84              	 .cfi_offset 4,-8
  85              	 .cfi_offset 14,-4
  86 0002 82B0     	 sub sp,sp,#8
  87              	 .cfi_def_cfa_offset 16
  40:hello.c       **** 	uart_config_t uart_config;      //ËÆæÁΩÆ‰∏≤Âè£ÔºåÁªìÊûÑ‰ΩìÁ±ªÂûã
  41:hello.c       ****     gsdk_status_t status;           //ÈîôËØØ‰ø°ÊÅØÔºåÊûö‰∏æÁ±ªÂûã
  42:hello.c       ****     
  43:hello.c       ****     uart_config.baudrate    = UART_BAUDRATE_115200;	
  88              	 .loc 1 43 0
  89 0004 0923     	 movs r3,#9
  90 0006 8DF80430 	 strb r3,[sp,#4]
  44:hello.c       ****     uart_config.parity      = UART_PARITY_NONE;
  91              	 .loc 1 44 0
  92 000a 0020     	 movs r0,#0
  93 000c 8DF80700 	 strb r0,[sp,#7]
  45:hello.c       ****     uart_config.stop_bit    = UART_STOP_BIT_1;
  94              	 .loc 1 45 0
  95 0010 8DF80600 	 strb r0,[sp,#6]
  46:hello.c       ****     uart_config.word_length = UART_WORD_LENGTH_8;
  96              	 .loc 1 46 0
  97 0014 0323     	 movs r3,#3
  98 0016 8DF80530 	 strb r3,[sp,#5]
  47:hello.c       **** 
  48:hello.c       ****     //ÂàùÂßãÂåñ‰∏≤Âè£
  49:hello.c       ****     status = gsdk_uart_open(UART_0, &uart_config, &g_huart);    //open uart0 to print debug log
  99              	 .loc 1 49 0
 100 001a 0F4A     	 ldr r2,.L12
 101 001c 01A9     	 add r1,sp,#4
 102 001e FFF7FEFF 	 bl gsdk_uart_open
 103              	.LVL7:
  50:hello.c       ****                                                                 //ÊàêÂäüËøîÂõû0ÔºåÂ§±Ë¥•ËøîÂõûÈîôËØ
  51:hello.c       ****     if (status != GSDK_SUCCESS) {
 104              	 .loc 1 51 0
 105 0022 88B9     	 cbnz r0,.L11
  52:hello.c       ****         gsdk_syslog_printf("[PRINTF_DEMO]: failed to open uart %d\n", status);
  53:hello.c       ****         return -1;
  54:hello.c       ****     }
  55:hello.c       **** 
  56:hello.c       **** 	//ËæìÂá∫‰∏∫ÂΩìÂâç‰∏≤Âè£ com9 	
  57:hello.c       **** 	printf("The log in genie tool, please open genie tool to see.\n");
 106              	 .loc 1 57 0
 107 0024 0D48     	 ldr r0,.L12+4
 108              	.LVL8:
 109 0026 FFF7FEFF 	 bl puts
 110              	.LVL9:
  58:hello.c       **** 
  59:hello.c       **** 	//ËæìÂá∫Áªôgenie Â∑•ÂÖ∑ ËøõË°åÊòæÁ§∫ ÔºàDEBUG Âè£Ôºâ	 
  60:hello.c       ****     gsdk_syslog_printf("[APP] Hello world!\n");			//The customer can use the gsdk_syslog_printf API
 111              	 .loc 1 60 0
 112 002a 0D48     	 ldr r0,.L12+8
ARM GAS   			page 4


 113 002c FFF7FEFF 	 bl gsdk_syslog_printf
 114              	.LVL10:
  61:hello.c       ****     gsdk_syslog_printf("[APP] GCC %s\n", __VERSION__); 
 115              	 .loc 1 61 0
 116 0030 0C49     	 ldr r1,.L12+12
 117 0032 0D48     	 ldr r0,.L12+16
 118 0034 FFF7FEFF 	 bl gsdk_syslog_printf
 119              	.LVL11:
  62:hello.c       **** 
  63:hello.c       ****     //ÂÖ≥Èó≠‰∏≤Âè£
  64:hello.c       **** 	gsdk_uart_close(g_huart);
 120              	 .loc 1 64 0
 121 0038 074C     	 ldr r4,.L12
 122 003a 2068     	 ldr r0,[r4]
 123 003c FFF7FEFF 	 bl gsdk_uart_close
 124              	.LVL12:
  65:hello.c       ****     //Âè•ÊüÑËÆæÁΩÆ‰∏∫Á©∫
  66:hello.c       ****     g_huart = NULL;
 125              	 .loc 1 66 0
 126 0040 0020     	 movs r0,#0
 127 0042 2060     	 str r0,[r4]
 128              	.L7:
  67:hello.c       **** 
  68:hello.c       ****     return 0;
  69:hello.c       **** }
 129              	 .loc 1 69 0
 130 0044 02B0     	 add sp,sp,#8
 131              	 .cfi_remember_state
 132              	 .cfi_def_cfa_offset 8
 133              	 
 134 0046 10BD     	 pop {r4,pc}
 135              	.LVL13:
 136              	.L11:
 137              	 .cfi_restore_state
 138 0048 0146     	 mov r1,r0
  52:hello.c       ****         return -1;
 139              	 .loc 1 52 0
 140 004a 0848     	 ldr r0,.L12+20
 141              	.LVL14:
 142 004c FFF7FEFF 	 bl gsdk_syslog_printf
 143              	.LVL15:
  53:hello.c       ****     }
 144              	 .loc 1 53 0
 145 0050 4FF0FF30 	 mov r0,#-1
 146 0054 F6E7     	 b .L7
 147              	.L13:
 148 0056 00BF     	 .align 2
 149              	.L12:
 150 0058 00000000 	 .word .LANCHOR0
 151 005c 28000000 	 .word .LC1
 152 0060 60000000 	 .word .LC2
 153 0064 74000000 	 .word .LC3
 154 0068 B8000000 	 .word .LC4
 155 006c 00000000 	 .word .LC0
 156              	 .cfi_endproc
 157              	.LFE20:
 159              	 .section .bss.g_huart,"aw",%nobits
ARM GAS   			page 5


 160              	 .align 2
 161              	 .set .LANCHOR0,.+0
 164              	g_huart:
 165 0000 00000000 	 .space 4
 166              	 .section .rodata.main.str1.4,"aMS",%progbits,1
 167              	 .align 2
 168              	.LC0:
 169 0000 5B505249 	 .ascii "[PRINTF_DEMO]: failed to open uart %d\012\000"
 169      4E54465F 
 169      44454D4F 
 169      5D3A2066 
 169      61696C65 
 170 0027 00       	 .space 1
 171              	.LC1:
 172 0028 54686520 	 .ascii "The log in genie tool, please open genie tool to se"
 172      6C6F6720 
 172      696E2067 
 172      656E6965 
 172      20746F6F 
 173 005b 652E00   	 .ascii "e.\000"
 174 005e 0000     	 .space 2
 175              	.LC2:
 176 0060 5B415050 	 .ascii "[APP] Hello world!\012\000"
 176      5D204865 
 176      6C6C6F20 
 176      776F726C 
 176      64210A00 
 177              	.LC3:
 178 0074 372E332E 	 .ascii "7.3.1 20180622 (release) [ARM/embedded-7-branch rev"
 178      31203230 
 178      31383036 
 178      32322028 
 178      72656C65 
 179 00a7 6973696F 	 .ascii "ision 261907]\000"
 179      6E203236 
 179      31393037 
 179      5D00
 180 00b5 000000   	 .space 3
 181              	.LC4:
 182 00b8 5B415050 	 .ascii "[APP] GCC %s\012\000"
 182      5D204743 
 182      43202573 
 182      0A00
 183              	 .text
 184              	.Letext0:
 185              	 .file 2 "c:\\program files (x86)\\gnu tools arm embedded\\7 2018-q2-update\\arm-none-eabi\\include\\machine\\_default_types.h"
 186              	 .file 3 "c:\\program files (x86)\\gnu tools arm embedded\\7 2018-q2-update\\arm-none-eabi\\include\\sys\\lock.h"
 187              	 .file 4 "c:\\program files (x86)\\gnu tools arm embedded\\7 2018-q2-update\\arm-none-eabi\\include\\sys\\_types.h"
 188              	 .file 5 "c:\\program files (x86)\\gnu tools arm embedded\\7 2018-q2-update\\lib\\gcc\\arm-none-eabi\\7.3.1\\include\\stddef.h"
 189              	 .file 6 "c:\\program files (x86)\\gnu tools arm embedded\\7 2018-q2-update\\arm-none-eabi\\include\\sys\\reent.h"
 190              	 .file 7 "c:\\program files (x86)\\gnu tools arm embedded\\7 2018-q2-update\\arm-none-eabi\\include\\sys\\_stdint.h"
 191              	 .file 8 "c:\\program files (x86)\\gnu tools arm embedded\\7 2018-q2-update\\arm-none-eabi\\include\\stdlib.h"
 192              	 .file 9 "E:/WorkDir/WelinkOpen_RTOS_SDK/VSCode/Projects/example_SDK/sdk/FreeRTOS/Source/include/FreeRTOSConfig.h"
 193              	 .file 10 "c:\\program files (x86)\\gnu tools arm embedded\\7 2018-q2-update\\arm-none-eabi\\include\\sys\\errno.h"
 194              	 .file 11 "c:\\program files (x86)\\gnu tools arm embedded\\7 2018-q2-update\\arm-none-eabi\\include\\time.h"
 195              	 .file 12 "E:/WorkDir/WelinkOpen_RTOS_SDK/VSCode/Projects/example_SDK/sdk/lwip/ports/include/arch/cc.h"
 196              	 .file 13 "E:/WorkDir/WelinkOpen_RTOS_SDK/VSCode/Projects/example_SDK/sdk/lwip/src/include/lwip/ip4_addr.h"
ARM GAS   			page 6


 197              	 .file 14 "E:/WorkDir/WelinkOpen_RTOS_SDK/VSCode/Projects/example_SDK/sdk/lwip/src/include/lwip/ip6_addr.h"
 198              	 .file 15 "E:/WorkDir/WelinkOpen_RTOS_SDK/VSCode/Projects/example_SDK/sdk/lwip/src/include/lwip/ip_addr.h"
 199              	 .file 16 "E:/WorkDir/WelinkOpen_RTOS_SDK/VSCode/Projects/example_SDK/sdk/lwip/src/include/lwip/err.h"
 200              	 .file 17 "E:/WorkDir/WelinkOpen_RTOS_SDK/VSCode/Projects/example_SDK/sdk/lwip/src/include/lwip/pbuf.h"
 201              	 .file 18 "E:/WorkDir/WelinkOpen_RTOS_SDK/VSCode/Projects/example_SDK/sdk/lwip/src/include/lwip/netif.h"
 202              	 .file 19 "E:/WorkDir/WelinkOpen_RTOS_SDK/VSCode/Projects/example_SDK/sdk/lwip/src/include/lwip/inet.h"
 203              	 .file 20 "E:/WorkDir/WelinkOpen_RTOS_SDK/VSCode/Projects/example_SDK/sdk/lwip/src/include/lwip/ip4.h"
 204              	 .file 21 "E:/WorkDir/WelinkOpen_RTOS_SDK/VSCode/Projects/example_SDK/sdk/lwip/src/include/lwip/ip6.h"
 205              	 .file 22 "E:/WorkDir/WelinkOpen_RTOS_SDK/VSCode/Projects/example_SDK/sdk/lwip/src/include/lwip/ip.h"
 206              	 .file 23 "E:/WorkDir/WelinkOpen_RTOS_SDK/VSCode/Projects/example_SDK/sdk/include/gsdk_common.h"
 207              	 .file 24 "E:/WorkDir/WelinkOpen_RTOS_SDK/VSCode/Projects/example_SDK/sdk/include/gsdk_uart.h"
 208              	 .file 25 "E:/WorkDir/WelinkOpen_RTOS_SDK/VSCode/Projects/example_SDK/sdk/include/gsdk_flash.h"
 209              	 .file 26 "E:/WorkDir/WelinkOpen_RTOS_SDK/VSCode/Projects/example_SDK/sdk/include/gsdk_api.h"
 210              	 .file 27 "<built-in>"
ARM GAS   			page 7

